(lp0
(lp1
S'BACKGROUND_Google/image_0442.jpg'
p2
aS'BACKGROUND_Google/image_0260.jpg'
p3
aS'Faces/image_0316.jpg'
p4
aS'Faces/image_0082.jpg'
p5
aS'Faces_easy/image_0169.jpg'
p6
aS'Faces_easy/image_0362.jpg'
p7
aS'Leopards/image_0122.jpg'
p8
aS'Leopards/image_0126.jpg'
p9
aS'Motorbikes/image_0383.jpg'
p10
aS'Motorbikes/image_0148.jpg'
p11
aS'accordion/image_0038.jpg'
p12
aS'accordion/image_0037.jpg'
p13
aS'airplanes/image_0701.jpg'
p14
aS'airplanes/image_0237.jpg'
p15
aS'anchor/image_0029.jpg'
p16
aS'anchor/image_0016.jpg'
p17
aS'ant/image_0007.jpg'
p18
aS'ant/image_0015.jpg'
p19
aS'barrel/image_0028.jpg'
p20
aS'barrel/image_0008.jpg'
p21
aS'bass/image_0032.jpg'
p22
aS'bass/image_0013.jpg'
p23
aS'beaver/image_0032.jpg'
p24
aS'beaver/image_0027.jpg'
p25
aS'binocular/image_0005.jpg'
p26
aS'binocular/image_0006.jpg'
p27
aS'bonsai/image_0072.jpg'
p28
aS'bonsai/image_0114.jpg'
p29
aS'brain/image_0084.jpg'
p30
aS'brain/image_0022.jpg'
p31
aS'brontosaurus/image_0038.jpg'
p32
aS'brontosaurus/image_0014.jpg'
p33
aS'buddha/image_0010.jpg'
p34
aS'buddha/image_0042.jpg'
p35
aS'butterfly/image_0060.jpg'
p36
aS'butterfly/image_0045.jpg'
p37
aS'camera/image_0048.jpg'
p38
aS'camera/image_0034.jpg'
p39
aS'cannon/image_0033.jpg'
p40
aS'cannon/image_0014.jpg'
p41
aS'car_side/image_0102.jpg'
p42
aS'car_side/image_0047.jpg'
p43
aS'ceiling_fan/image_0032.jpg'
p44
aS'ceiling_fan/image_0037.jpg'
p45
aS'cellphone/image_0048.jpg'
p46
aS'cellphone/image_0054.jpg'
p47
aS'chair/image_0016.jpg'
p48
aS'chair/image_0021.jpg'
p49
aS'chandelier/image_0106.jpg'
p50
aS'chandelier/image_0078.jpg'
p51
aS'cougar_body/image_0009.jpg'
p52
aS'cougar_body/image_0008.jpg'
p53
aS'cougar_face/image_0064.jpg'
p54
aS'cougar_face/image_0060.jpg'
p55
aS'crab/image_0013.jpg'
p56
aS'crab/image_0037.jpg'
p57
aS'crayfish/image_0046.jpg'
p58
aS'crayfish/image_0024.jpg'
p59
aS'crocodile/image_0005.jpg'
p60
aS'crocodile/image_0026.jpg'
p61
aS'crocodile_head/image_0025.jpg'
p62
aS'crocodile_head/image_0051.jpg'
p63
aS'cup/image_0008.jpg'
p64
aS'cup/image_0048.jpg'
p65
aS'dalmatian/image_0009.jpg'
p66
aS'dalmatian/image_0025.jpg'
p67
aS'dollar_bill/image_0002.jpg'
p68
aS'dollar_bill/image_0033.jpg'
p69
aS'dolphin/image_0060.jpg'
p70
aS'dolphin/image_0039.jpg'
p71
aS'dragonfly/image_0005.jpg'
p72
aS'dragonfly/image_0051.jpg'
p73
aS'electric_guitar/image_0007.jpg'
p74
aS'electric_guitar/image_0034.jpg'
p75
aS'elephant/image_0007.jpg'
p76
aS'elephant/image_0022.jpg'
p77
aS'emu/image_0050.jpg'
p78
aS'emu/image_0025.jpg'
p79
aS'euphonium/image_0047.jpg'
p80
aS'euphonium/image_0053.jpg'
p81
aS'ewer/image_0038.jpg'
p82
aS'ewer/image_0043.jpg'
p83
aS'ferry/image_0034.jpg'
p84
aS'ferry/image_0006.jpg'
p85
aS'flamingo/image_0013.jpg'
p86
aS'flamingo/image_0060.jpg'
p87
aS'flamingo_head/image_0044.jpg'
p88
aS'flamingo_head/image_0015.jpg'
p89
aS'garfield/image_0017.jpg'
p90
aS'garfield/image_0019.jpg'
p91
aS'gerenuk/image_0013.jpg'
p92
aS'gerenuk/image_0015.jpg'
p93
aS'gramophone/image_0021.jpg'
p94
aS'gramophone/image_0018.jpg'
p95
aS'grand_piano/image_0052.jpg'
p96
aS'grand_piano/image_0021.jpg'
p97
aS'hawksbill/image_0056.jpg'
p98
aS'hawksbill/image_0100.jpg'
p99
aS'headphone/image_0002.jpg'
p100
aS'headphone/image_0013.jpg'
p101
aS'hedgehog/image_0018.jpg'
p102
aS'hedgehog/image_0014.jpg'
p103
aS'helicopter/image_0023.jpg'
p104
aS'helicopter/image_0058.jpg'
p105
aS'ibis/image_0062.jpg'
p106
aS'ibis/image_0003.jpg'
p107
aS'inline_skate/image_0027.jpg'
p108
aS'inline_skate/image_0008.jpg'
p109
aS'joshua_tree/image_0036.jpg'
p110
aS'joshua_tree/image_0059.jpg'
p111
aS'kangaroo/image_0020.jpg'
p112
aS'kangaroo/image_0048.jpg'
p113
aS'ketch/image_0038.jpg'
p114
aS'ketch/image_0043.jpg'
p115
aS'lamp/image_0045.jpg'
p116
aS'lamp/image_0059.jpg'
p117
aS'laptop/image_0052.jpg'
p118
aS'laptop/image_0047.jpg'
p119
aS'llama/image_0020.jpg'
p120
aS'llama/image_0073.jpg'
p121
aS'lobster/image_0022.jpg'
p122
aS'lobster/image_0025.jpg'
p123
aS'lotus/image_0023.jpg'
p124
aS'lotus/image_0046.jpg'
p125
aS'mandolin/image_0002.jpg'
p126
aS'mandolin/image_0024.jpg'
p127
aS'mayfly/image_0035.jpg'
p128
aS'mayfly/image_0018.jpg'
p129
aS'menorah/image_0079.jpg'
p130
aS'menorah/image_0057.jpg'
p131
aS'metronome/image_0023.jpg'
p132
aS'metronome/image_0024.jpg'
p133
aS'minaret/image_0011.jpg'
p134
aS'minaret/image_0020.jpg'
p135
aS'nautilus/image_0051.jpg'
p136
aS'nautilus/image_0042.jpg'
p137
aS'octopus/image_0014.jpg'
p138
aS'octopus/image_0018.jpg'
p139
aS'okapi/image_0003.jpg'
p140
aS'okapi/image_0006.jpg'
p141
aS'pagoda/image_0028.jpg'
p142
aS'pagoda/image_0039.jpg'
p143
aS'panda/image_0003.jpg'
p144
aS'panda/image_0020.jpg'
p145
aS'pigeon/image_0035.jpg'
p146
aS'pigeon/image_0025.jpg'
p147
aS'pizza/image_0003.jpg'
p148
aS'pizza/image_0010.jpg'
p149
aS'platypus/image_0009.jpg'
p150
aS'platypus/image_0023.jpg'
p151
aS'pyramid/image_0040.jpg'
p152
aS'pyramid/image_0054.jpg'
p153
aS'revolver/image_0065.jpg'
p154
aS'revolver/image_0054.jpg'
p155
aS'rhino/image_0017.jpg'
p156
aS'rhino/image_0010.jpg'
p157
aS'rooster/image_0021.jpg'
p158
aS'rooster/image_0010.jpg'
p159
aS'saxophone/image_0038.jpg'
p160
aS'saxophone/image_0001.jpg'
p161
aS'schooner/image_0051.jpg'
p162
aS'schooner/image_0033.jpg'
p163
aS'scissors/image_0002.jpg'
p164
aS'scissors/image_0011.jpg'
p165
aS'scorpion/image_0060.jpg'
p166
aS'scorpion/image_0059.jpg'
p167
aS'sea_horse/image_0055.jpg'
p168
aS'sea_horse/image_0007.jpg'
p169
aS'snoopy/image_0005.jpg'
p170
aS'snoopy/image_0008.jpg'
p171
aS'soccer_ball/image_0008.jpg'
p172
aS'soccer_ball/image_0064.jpg'
p173
aS'stapler/image_0003.jpg'
p174
aS'stapler/image_0041.jpg'
p175
aS'starfish/image_0015.jpg'
p176
aS'starfish/image_0041.jpg'
p177
aS'stegosaurus/image_0054.jpg'
p178
aS'stegosaurus/image_0028.jpg'
p179
aS'stop_sign/image_0057.jpg'
p180
aS'stop_sign/image_0006.jpg'
p181
aS'strawberry/image_0023.jpg'
p182
aS'strawberry/image_0009.jpg'
p183
aS'sunflower/image_0048.jpg'
p184
aS'sunflower/image_0014.jpg'
p185
aS'tick/image_0029.jpg'
p186
aS'tick/image_0013.jpg'
p187
aS'trilobite/image_0002.jpg'
p188
aS'trilobite/image_0009.jpg'
p189
aS'umbrella/image_0019.jpg'
p190
aS'umbrella/image_0032.jpg'
p191
aS'watch/image_0223.jpg'
p192
aS'watch/image_0125.jpg'
p193
aS'water_lilly/image_0013.jpg'
p194
aS'water_lilly/image_0028.jpg'
p195
aS'wheelchair/image_0015.jpg'
p196
aS'wheelchair/image_0043.jpg'
p197
aS'wild_cat/image_0001.jpg'
p198
aS'wild_cat/image_0006.jpg'
p199
aS'windsor_chair/image_0024.jpg'
p200
aS'windsor_chair/image_0006.jpg'
p201
aS'wrench/image_0019.jpg'
p202
aS'wrench/image_0020.jpg'
p203
aS'yin_yang/image_0049.jpg'
p204
aS'yin_yang/image_0058.jpg'
p205
aa(lp206
I0
aI0
aI1
aI1
aI2
aI2
aI3
aI3
aI4
aI4
aI5
aI5
aI6
aI6
aI7
aI7
aI8
aI8
aI9
aI9
aI10
aI10
aI11
aI11
aI12
aI12
aI13
aI13
aI14
aI14
aI15
aI15
aI16
aI16
aI17
aI17
aI18
aI18
aI19
aI19
aI20
aI20
aI21
aI21
aI22
aI22
aI23
aI23
aI24
aI24
aI25
aI25
aI26
aI26
aI27
aI27
aI28
aI28
aI29
aI29
aI30
aI30
aI31
aI31
aI32
aI32
aI33
aI33
aI34
aI34
aI35
aI35
aI36
aI36
aI37
aI37
aI38
aI38
aI39
aI39
aI40
aI40
aI41
aI41
aI42
aI42
aI43
aI43
aI44
aI44
aI45
aI45
aI46
aI46
aI47
aI47
aI48
aI48
aI49
aI49
aI50
aI50
aI51
aI51
aI52
aI52
aI53
aI53
aI54
aI54
aI55
aI55
aI56
aI56
aI57
aI57
aI58
aI58
aI59
aI59
aI60
aI60
aI61
aI61
aI62
aI62
aI63
aI63
aI64
aI64
aI65
aI65
aI66
aI66
aI67
aI67
aI68
aI68
aI69
aI69
aI70
aI70
aI71
aI71
aI72
aI72
aI73
aI73
aI74
aI74
aI75
aI75
aI76
aI76
aI77
aI77
aI78
aI78
aI79
aI79
aI80
aI80
aI81
aI81
aI82
aI82
aI83
aI83
aI84
aI84
aI85
aI85
aI86
aI86
aI87
aI87
aI88
aI88
aI89
aI89
aI90
aI90
aI91
aI91
aI92
aI92
aI93
aI93
aI94
aI94
aI95
aI95
aI96
aI96
aI97
aI97
aI98
aI98
aI99
aI99
aI100
aI100
aI101
aI101
aa(lp207
S'BACKGROUND_Google/image_0330.jpg'
p208
aS'Faces/image_0181.jpg'
p209
aS'Faces_easy/image_0034.jpg'
p210
aS'Leopards/image_0018.jpg'
p211
aS'Motorbikes/image_0441.jpg'
p212
aS'accordion/image_0036.jpg'
p213
aS'airplanes/image_0195.jpg'
p214
aS'anchor/image_0028.jpg'
p215
aS'ant/image_0039.jpg'
p216
aS'barrel/image_0047.jpg'
p217
aS'bass/image_0011.jpg'
p218
aS'beaver/image_0021.jpg'
p219
aS'binocular/image_0025.jpg'
p220
aS'bonsai/image_0004.jpg'
p221
aS'brain/image_0089.jpg'
p222
aS'brontosaurus/image_0019.jpg'
p223
aS'buddha/image_0070.jpg'
p224
aS'butterfly/image_0037.jpg'
p225
aS'camera/image_0003.jpg'
p226
aS'cannon/image_0016.jpg'
p227
aS'car_side/image_0067.jpg'
p228
aS'ceiling_fan/image_0038.jpg'
p229
aS'cellphone/image_0039.jpg'
p230
aS'chair/image_0051.jpg'
p231
aS'chandelier/image_0043.jpg'
p232
aS'cougar_body/image_0043.jpg'
p233
aS'cougar_face/image_0049.jpg'
p234
aS'crab/image_0055.jpg'
p235
aS'crayfish/image_0012.jpg'
p236
aS'crocodile/image_0006.jpg'
p237
aS'crocodile_head/image_0023.jpg'
p238
aS'cup/image_0015.jpg'
p239
aS'dalmatian/image_0057.jpg'
p240
aS'dollar_bill/image_0026.jpg'
p241
aS'dolphin/image_0036.jpg'
p242
aS'dragonfly/image_0024.jpg'
p243
aS'electric_guitar/image_0035.jpg'
p244
aS'elephant/image_0001.jpg'
p245
aS'emu/image_0047.jpg'
p246
aS'euphonium/image_0008.jpg'
p247
aS'ewer/image_0019.jpg'
p248
aS'ferry/image_0059.jpg'
p249
aS'flamingo/image_0063.jpg'
p250
aS'flamingo_head/image_0007.jpg'
p251
aS'garfield/image_0003.jpg'
p252
aS'gerenuk/image_0021.jpg'
p253
aS'gramophone/image_0045.jpg'
p254
aS'grand_piano/image_0047.jpg'
p255
aS'hawksbill/image_0081.jpg'
p256
aS'headphone/image_0025.jpg'
p257
aS'hedgehog/image_0044.jpg'
p258
aS'helicopter/image_0051.jpg'
p259
aS'ibis/image_0029.jpg'
p260
aS'inline_skate/image_0007.jpg'
p261
aS'joshua_tree/image_0009.jpg'
p262
aS'kangaroo/image_0077.jpg'
p263
aS'ketch/image_0018.jpg'
p264
aS'lamp/image_0029.jpg'
p265
aS'laptop/image_0039.jpg'
p266
aS'llama/image_0059.jpg'
p267
aS'lobster/image_0028.jpg'
p268
aS'lotus/image_0053.jpg'
p269
aS'mandolin/image_0023.jpg'
p270
aS'mayfly/image_0021.jpg'
p271
aS'menorah/image_0073.jpg'
p272
aS'metronome/image_0004.jpg'
p273
aS'minaret/image_0023.jpg'
p274
aS'nautilus/image_0038.jpg'
p275
aS'octopus/image_0035.jpg'
p276
aS'okapi/image_0030.jpg'
p277
aS'pagoda/image_0004.jpg'
p278
aS'panda/image_0015.jpg'
p279
aS'pigeon/image_0014.jpg'
p280
aS'pizza/image_0031.jpg'
p281
aS'platypus/image_0017.jpg'
p282
aS'pyramid/image_0057.jpg'
p283
aS'revolver/image_0069.jpg'
p284
aS'rhino/image_0053.jpg'
p285
aS'rooster/image_0019.jpg'
p286
aS'saxophone/image_0032.jpg'
p287
aS'schooner/image_0049.jpg'
p288
aS'scissors/image_0013.jpg'
p289
aS'scorpion/image_0015.jpg'
p290
aS'sea_horse/image_0026.jpg'
p291
aS'snoopy/image_0002.jpg'
p292
aS'soccer_ball/image_0031.jpg'
p293
aS'stapler/image_0012.jpg'
p294
aS'starfish/image_0064.jpg'
p295
aS'stegosaurus/image_0039.jpg'
p296
aS'stop_sign/image_0017.jpg'
p297
aS'strawberry/image_0012.jpg'
p298
aS'sunflower/image_0047.jpg'
p299
aS'tick/image_0048.jpg'
p300
aS'trilobite/image_0068.jpg'
p301
aS'umbrella/image_0060.jpg'
p302
aS'watch/image_0070.jpg'
p303
aS'water_lilly/image_0007.jpg'
p304
aS'wheelchair/image_0035.jpg'
p305
aS'wild_cat/image_0003.jpg'
p306
aS'windsor_chair/image_0028.jpg'
p307
aS'wrench/image_0034.jpg'
p308
aS'yin_yang/image_0042.jpg'
p309
aa(lp310
I0
aI1
aI2
aI3
aI4
aI5
aI6
aI7
aI8
aI9
aI10
aI11
aI12
aI13
aI14
aI15
aI16
aI17
aI18
aI19
aI20
aI21
aI22
aI23
aI24
aI25
aI26
aI27
aI28
aI29
aI30
aI31
aI32
aI33
aI34
aI35
aI36
aI37
aI38
aI39
aI40
aI41
aI42
aI43
aI44
aI45
aI46
aI47
aI48
aI49
aI50
aI51
aI52
aI53
aI54
aI55
aI56
aI57
aI58
aI59
aI60
aI61
aI62
aI63
aI64
aI65
aI66
aI67
aI68
aI69
aI70
aI71
aI72
aI73
aI74
aI75
aI76
aI77
aI78
aI79
aI80
aI81
aI82
aI83
aI84
aI85
aI86
aI87
aI88
aI89
aI90
aI91
aI92
aI93
aI94
aI95
aI96
aI97
aI98
aI99
aI100
aI101
aa.