(lp0
(lp1
S'BACKGROUND_Google/image_0277.jpg'
p2
aS'BACKGROUND_Google/image_0196.jpg'
p3
aS'BACKGROUND_Google/image_0279.jpg'
p4
aS'BACKGROUND_Google/image_0341.jpg'
p5
aS'Faces/image_0163.jpg'
p6
aS'Faces/image_0139.jpg'
p7
aS'Faces/image_0043.jpg'
p8
aS'Faces/image_0291.jpg'
p9
aS'Faces_easy/image_0260.jpg'
p10
aS'Faces_easy/image_0071.jpg'
p11
aS'Faces_easy/image_0318.jpg'
p12
aS'Faces_easy/image_0357.jpg'
p13
aS'Leopards/image_0047.jpg'
p14
aS'Leopards/image_0052.jpg'
p15
aS'Leopards/image_0200.jpg'
p16
aS'Leopards/image_0083.jpg'
p17
aS'Motorbikes/image_0070.jpg'
p18
aS'Motorbikes/image_0085.jpg'
p19
aS'Motorbikes/image_0542.jpg'
p20
aS'Motorbikes/image_0401.jpg'
p21
aS'accordion/image_0051.jpg'
p22
aS'accordion/image_0036.jpg'
p23
aS'accordion/image_0043.jpg'
p24
aS'accordion/image_0041.jpg'
p25
aS'airplanes/image_0208.jpg'
p26
aS'airplanes/image_0083.jpg'
p27
aS'airplanes/image_0378.jpg'
p28
aS'airplanes/image_0248.jpg'
p29
aS'anchor/image_0015.jpg'
p30
aS'anchor/image_0003.jpg'
p31
aS'anchor/image_0038.jpg'
p32
aS'anchor/image_0042.jpg'
p33
aS'ant/image_0037.jpg'
p34
aS'ant/image_0011.jpg'
p35
aS'ant/image_0019.jpg'
p36
aS'ant/image_0004.jpg'
p37
aS'barrel/image_0028.jpg'
p38
aS'barrel/image_0023.jpg'
p39
aS'barrel/image_0004.jpg'
p40
aS'barrel/image_0034.jpg'
p41
aS'bass/image_0052.jpg'
p42
aS'bass/image_0014.jpg'
p43
aS'bass/image_0032.jpg'
p44
aS'bass/image_0020.jpg'
p45
aS'beaver/image_0038.jpg'
p46
aS'beaver/image_0023.jpg'
p47
aS'beaver/image_0037.jpg'
p48
aS'beaver/image_0040.jpg'
p49
aS'binocular/image_0006.jpg'
p50
aS'binocular/image_0019.jpg'
p51
aS'binocular/image_0011.jpg'
p52
aS'binocular/image_0025.jpg'
p53
aS'bonsai/image_0096.jpg'
p54
aS'bonsai/image_0118.jpg'
p55
aS'bonsai/image_0072.jpg'
p56
aS'bonsai/image_0003.jpg'
p57
aS'brain/image_0029.jpg'
p58
aS'brain/image_0014.jpg'
p59
aS'brain/image_0091.jpg'
p60
aS'brain/image_0052.jpg'
p61
aS'brontosaurus/image_0014.jpg'
p62
aS'brontosaurus/image_0039.jpg'
p63
aS'brontosaurus/image_0037.jpg'
p64
aS'brontosaurus/image_0024.jpg'
p65
aS'buddha/image_0046.jpg'
p66
aS'buddha/image_0019.jpg'
p67
aS'buddha/image_0029.jpg'
p68
aS'buddha/image_0032.jpg'
p69
aS'butterfly/image_0025.jpg'
p70
aS'butterfly/image_0019.jpg'
p71
aS'butterfly/image_0051.jpg'
p72
aS'butterfly/image_0089.jpg'
p73
aS'camera/image_0013.jpg'
p74
aS'camera/image_0021.jpg'
p75
aS'camera/image_0026.jpg'
p76
aS'camera/image_0022.jpg'
p77
aS'cannon/image_0010.jpg'
p78
aS'cannon/image_0035.jpg'
p79
aS'cannon/image_0026.jpg'
p80
aS'cannon/image_0034.jpg'
p81
aS'car_side/image_0082.jpg'
p82
aS'car_side/image_0036.jpg'
p83
aS'car_side/image_0101.jpg'
p84
aS'car_side/image_0110.jpg'
p85
aS'ceiling_fan/image_0045.jpg'
p86
aS'ceiling_fan/image_0030.jpg'
p87
aS'ceiling_fan/image_0009.jpg'
p88
aS'ceiling_fan/image_0037.jpg'
p89
aS'cellphone/image_0052.jpg'
p90
aS'cellphone/image_0023.jpg'
p91
aS'cellphone/image_0030.jpg'
p92
aS'cellphone/image_0016.jpg'
p93
aS'chair/image_0057.jpg'
p94
aS'chair/image_0048.jpg'
p95
aS'chair/image_0062.jpg'
p96
aS'chair/image_0058.jpg'
p97
aS'chandelier/image_0104.jpg'
p98
aS'chandelier/image_0036.jpg'
p99
aS'chandelier/image_0038.jpg'
p100
aS'chandelier/image_0042.jpg'
p101
aS'cougar_body/image_0026.jpg'
p102
aS'cougar_body/image_0024.jpg'
p103
aS'cougar_body/image_0011.jpg'
p104
aS'cougar_body/image_0044.jpg'
p105
aS'cougar_face/image_0046.jpg'
p106
aS'cougar_face/image_0033.jpg'
p107
aS'cougar_face/image_0008.jpg'
p108
aS'cougar_face/image_0055.jpg'
p109
aS'crab/image_0027.jpg'
p110
aS'crab/image_0049.jpg'
p111
aS'crab/image_0022.jpg'
p112
aS'crab/image_0018.jpg'
p113
aS'crayfish/image_0061.jpg'
p114
aS'crayfish/image_0037.jpg'
p115
aS'crayfish/image_0052.jpg'
p116
aS'crayfish/image_0022.jpg'
p117
aS'crocodile/image_0002.jpg'
p118
aS'crocodile/image_0003.jpg'
p119
aS'crocodile/image_0020.jpg'
p120
aS'crocodile/image_0015.jpg'
p121
aS'crocodile_head/image_0035.jpg'
p122
aS'crocodile_head/image_0015.jpg'
p123
aS'crocodile_head/image_0032.jpg'
p124
aS'crocodile_head/image_0017.jpg'
p125
aS'cup/image_0005.jpg'
p126
aS'cup/image_0048.jpg'
p127
aS'cup/image_0017.jpg'
p128
aS'cup/image_0037.jpg'
p129
aS'dalmatian/image_0036.jpg'
p130
aS'dalmatian/image_0002.jpg'
p131
aS'dalmatian/image_0066.jpg'
p132
aS'dalmatian/image_0048.jpg'
p133
aS'dollar_bill/image_0029.jpg'
p134
aS'dollar_bill/image_0010.jpg'
p135
aS'dollar_bill/image_0047.jpg'
p136
aS'dollar_bill/image_0050.jpg'
p137
aS'dolphin/image_0065.jpg'
p138
aS'dolphin/image_0026.jpg'
p139
aS'dolphin/image_0002.jpg'
p140
aS'dolphin/image_0064.jpg'
p141
aS'dragonfly/image_0052.jpg'
p142
aS'dragonfly/image_0047.jpg'
p143
aS'dragonfly/image_0022.jpg'
p144
aS'dragonfly/image_0041.jpg'
p145
aS'electric_guitar/image_0030.jpg'
p146
aS'electric_guitar/image_0045.jpg'
p147
aS'electric_guitar/image_0025.jpg'
p148
aS'electric_guitar/image_0035.jpg'
p149
aS'elephant/image_0030.jpg'
p150
aS'elephant/image_0059.jpg'
p151
aS'elephant/image_0006.jpg'
p152
aS'elephant/image_0043.jpg'
p153
aS'emu/image_0050.jpg'
p154
aS'emu/image_0052.jpg'
p155
aS'emu/image_0011.jpg'
p156
aS'emu/image_0046.jpg'
p157
aS'euphonium/image_0047.jpg'
p158
aS'euphonium/image_0034.jpg'
p159
aS'euphonium/image_0058.jpg'
p160
aS'euphonium/image_0044.jpg'
p161
aS'ewer/image_0027.jpg'
p162
aS'ewer/image_0014.jpg'
p163
aS'ewer/image_0068.jpg'
p164
aS'ewer/image_0020.jpg'
p165
aS'ferry/image_0019.jpg'
p166
aS'ferry/image_0061.jpg'
p167
aS'ferry/image_0055.jpg'
p168
aS'ferry/image_0029.jpg'
p169
aS'flamingo/image_0007.jpg'
p170
aS'flamingo/image_0040.jpg'
p171
aS'flamingo/image_0027.jpg'
p172
aS'flamingo/image_0056.jpg'
p173
aS'flamingo_head/image_0012.jpg'
p174
aS'flamingo_head/image_0042.jpg'
p175
aS'flamingo_head/image_0034.jpg'
p176
aS'flamingo_head/image_0036.jpg'
p177
aS'garfield/image_0031.jpg'
p178
aS'garfield/image_0004.jpg'
p179
aS'garfield/image_0002.jpg'
p180
aS'garfield/image_0019.jpg'
p181
aS'gerenuk/image_0018.jpg'
p182
aS'gerenuk/image_0011.jpg'
p183
aS'gerenuk/image_0034.jpg'
p184
aS'gerenuk/image_0030.jpg'
p185
aS'gramophone/image_0044.jpg'
p186
aS'gramophone/image_0038.jpg'
p187
aS'gramophone/image_0030.jpg'
p188
aS'gramophone/image_0012.jpg'
p189
aS'grand_piano/image_0029.jpg'
p190
aS'grand_piano/image_0027.jpg'
p191
aS'grand_piano/image_0076.jpg'
p192
aS'grand_piano/image_0040.jpg'
p193
aS'hawksbill/image_0075.jpg'
p194
aS'hawksbill/image_0097.jpg'
p195
aS'hawksbill/image_0065.jpg'
p196
aS'hawksbill/image_0007.jpg'
p197
aS'headphone/image_0007.jpg'
p198
aS'headphone/image_0001.jpg'
p199
aS'headphone/image_0041.jpg'
p200
aS'headphone/image_0011.jpg'
p201
aS'hedgehog/image_0034.jpg'
p202
aS'hedgehog/image_0050.jpg'
p203
aS'hedgehog/image_0053.jpg'
p204
aS'hedgehog/image_0010.jpg'
p205
aS'helicopter/image_0087.jpg'
p206
aS'helicopter/image_0065.jpg'
p207
aS'helicopter/image_0060.jpg'
p208
aS'helicopter/image_0069.jpg'
p209
aS'ibis/image_0023.jpg'
p210
aS'ibis/image_0039.jpg'
p211
aS'ibis/image_0071.jpg'
p212
aS'ibis/image_0045.jpg'
p213
aS'inline_skate/image_0008.jpg'
p214
aS'inline_skate/image_0015.jpg'
p215
aS'inline_skate/image_0007.jpg'
p216
aS'inline_skate/image_0012.jpg'
p217
aS'joshua_tree/image_0022.jpg'
p218
aS'joshua_tree/image_0033.jpg'
p219
aS'joshua_tree/image_0035.jpg'
p220
aS'joshua_tree/image_0020.jpg'
p221
aS'kangaroo/image_0003.jpg'
p222
aS'kangaroo/image_0052.jpg'
p223
aS'kangaroo/image_0005.jpg'
p224
aS'kangaroo/image_0011.jpg'
p225
aS'ketch/image_0099.jpg'
p226
aS'ketch/image_0103.jpg'
p227
aS'ketch/image_0027.jpg'
p228
aS'ketch/image_0015.jpg'
p229
aS'lamp/image_0008.jpg'
p230
aS'lamp/image_0056.jpg'
p231
aS'lamp/image_0058.jpg'
p232
aS'lamp/image_0048.jpg'
p233
aS'laptop/image_0038.jpg'
p234
aS'laptop/image_0042.jpg'
p235
aS'laptop/image_0015.jpg'
p236
aS'laptop/image_0061.jpg'
p237
aS'llama/image_0021.jpg'
p238
aS'llama/image_0020.jpg'
p239
aS'llama/image_0007.jpg'
p240
aS'llama/image_0060.jpg'
p241
aS'lobster/image_0006.jpg'
p242
aS'lobster/image_0007.jpg'
p243
aS'lobster/image_0035.jpg'
p244
aS'lobster/image_0025.jpg'
p245
aS'lotus/image_0035.jpg'
p246
aS'lotus/image_0008.jpg'
p247
aS'lotus/image_0019.jpg'
p248
aS'lotus/image_0064.jpg'
p249
aS'mandolin/image_0039.jpg'
p250
aS'mandolin/image_0012.jpg'
p251
aS'mandolin/image_0018.jpg'
p252
aS'mandolin/image_0043.jpg'
p253
aS'mayfly/image_0028.jpg'
p254
aS'mayfly/image_0001.jpg'
p255
aS'mayfly/image_0030.jpg'
p256
aS'mayfly/image_0002.jpg'
p257
aS'menorah/image_0009.jpg'
p258
aS'menorah/image_0002.jpg'
p259
aS'menorah/image_0059.jpg'
p260
aS'menorah/image_0085.jpg'
p261
aS'metronome/image_0030.jpg'
p262
aS'metronome/image_0006.jpg'
p263
aS'metronome/image_0017.jpg'
p264
aS'metronome/image_0020.jpg'
p265
aS'minaret/image_0049.jpg'
p266
aS'minaret/image_0042.jpg'
p267
aS'minaret/image_0021.jpg'
p268
aS'minaret/image_0031.jpg'
p269
aS'nautilus/image_0047.jpg'
p270
aS'nautilus/image_0046.jpg'
p271
aS'nautilus/image_0003.jpg'
p272
aS'nautilus/image_0035.jpg'
p273
aS'octopus/image_0014.jpg'
p274
aS'octopus/image_0028.jpg'
p275
aS'octopus/image_0004.jpg'
p276
aS'octopus/image_0005.jpg'
p277
aS'okapi/image_0018.jpg'
p278
aS'okapi/image_0023.jpg'
p279
aS'okapi/image_0004.jpg'
p280
aS'okapi/image_0011.jpg'
p281
aS'pagoda/image_0014.jpg'
p282
aS'pagoda/image_0028.jpg'
p283
aS'pagoda/image_0004.jpg'
p284
aS'pagoda/image_0020.jpg'
p285
aS'panda/image_0015.jpg'
p286
aS'panda/image_0009.jpg'
p287
aS'panda/image_0013.jpg'
p288
aS'panda/image_0026.jpg'
p289
aS'pigeon/image_0015.jpg'
p290
aS'pigeon/image_0014.jpg'
p291
aS'pigeon/image_0020.jpg'
p292
aS'pigeon/image_0033.jpg'
p293
aS'pizza/image_0014.jpg'
p294
aS'pizza/image_0043.jpg'
p295
aS'pizza/image_0013.jpg'
p296
aS'pizza/image_0036.jpg'
p297
aS'platypus/image_0025.jpg'
p298
aS'platypus/image_0029.jpg'
p299
aS'platypus/image_0013.jpg'
p300
aS'platypus/image_0026.jpg'
p301
aS'pyramid/image_0020.jpg'
p302
aS'pyramid/image_0026.jpg'
p303
aS'pyramid/image_0019.jpg'
p304
aS'pyramid/image_0055.jpg'
p305
aS'revolver/image_0019.jpg'
p306
aS'revolver/image_0062.jpg'
p307
aS'revolver/image_0006.jpg'
p308
aS'revolver/image_0050.jpg'
p309
aS'rhino/image_0036.jpg'
p310
aS'rhino/image_0008.jpg'
p311
aS'rhino/image_0050.jpg'
p312
aS'rhino/image_0002.jpg'
p313
aS'rooster/image_0043.jpg'
p314
aS'rooster/image_0008.jpg'
p315
aS'rooster/image_0045.jpg'
p316
aS'rooster/image_0002.jpg'
p317
aS'saxophone/image_0025.jpg'
p318
aS'saxophone/image_0017.jpg'
p319
aS'saxophone/image_0040.jpg'
p320
aS'saxophone/image_0015.jpg'
p321
aS'schooner/image_0018.jpg'
p322
aS'schooner/image_0019.jpg'
p323
aS'schooner/image_0014.jpg'
p324
aS'schooner/image_0037.jpg'
p325
aS'scissors/image_0025.jpg'
p326
aS'scissors/image_0031.jpg'
p327
aS'scissors/image_0009.jpg'
p328
aS'scissors/image_0014.jpg'
p329
aS'scorpion/image_0023.jpg'
p330
aS'scorpion/image_0042.jpg'
p331
aS'scorpion/image_0043.jpg'
p332
aS'scorpion/image_0081.jpg'
p333
aS'sea_horse/image_0043.jpg'
p334
aS'sea_horse/image_0037.jpg'
p335
aS'sea_horse/image_0022.jpg'
p336
aS'sea_horse/image_0021.jpg'
p337
aS'snoopy/image_0018.jpg'
p338
aS'snoopy/image_0016.jpg'
p339
aS'snoopy/image_0007.jpg'
p340
aS'snoopy/image_0027.jpg'
p341
aS'soccer_ball/image_0053.jpg'
p342
aS'soccer_ball/image_0058.jpg'
p343
aS'soccer_ball/image_0030.jpg'
p344
aS'soccer_ball/image_0022.jpg'
p345
aS'stapler/image_0003.jpg'
p346
aS'stapler/image_0023.jpg'
p347
aS'stapler/image_0040.jpg'
p348
aS'stapler/image_0042.jpg'
p349
aS'starfish/image_0033.jpg'
p350
aS'starfish/image_0019.jpg'
p351
aS'starfish/image_0067.jpg'
p352
aS'starfish/image_0082.jpg'
p353
aS'stegosaurus/image_0003.jpg'
p354
aS'stegosaurus/image_0007.jpg'
p355
aS'stegosaurus/image_0056.jpg'
p356
aS'stegosaurus/image_0025.jpg'
p357
aS'stop_sign/image_0056.jpg'
p358
aS'stop_sign/image_0014.jpg'
p359
aS'stop_sign/image_0060.jpg'
p360
aS'stop_sign/image_0051.jpg'
p361
aS'strawberry/image_0021.jpg'
p362
aS'strawberry/image_0016.jpg'
p363
aS'strawberry/image_0004.jpg'
p364
aS'strawberry/image_0019.jpg'
p365
aS'sunflower/image_0058.jpg'
p366
aS'sunflower/image_0062.jpg'
p367
aS'sunflower/image_0017.jpg'
p368
aS'sunflower/image_0014.jpg'
p369
aS'tick/image_0040.jpg'
p370
aS'tick/image_0020.jpg'
p371
aS'tick/image_0042.jpg'
p372
aS'tick/image_0023.jpg'
p373
aS'trilobite/image_0040.jpg'
p374
aS'trilobite/image_0013.jpg'
p375
aS'trilobite/image_0016.jpg'
p376
aS'trilobite/image_0035.jpg'
p377
aS'umbrella/image_0007.jpg'
p378
aS'umbrella/image_0014.jpg'
p379
aS'umbrella/image_0010.jpg'
p380
aS'umbrella/image_0023.jpg'
p381
aS'watch/image_0155.jpg'
p382
aS'watch/image_0194.jpg'
p383
aS'watch/image_0032.jpg'
p384
aS'watch/image_0069.jpg'
p385
aS'water_lilly/image_0021.jpg'
p386
aS'water_lilly/image_0018.jpg'
p387
aS'water_lilly/image_0013.jpg'
p388
aS'water_lilly/image_0032.jpg'
p389
aS'wheelchair/image_0018.jpg'
p390
aS'wheelchair/image_0035.jpg'
p391
aS'wheelchair/image_0028.jpg'
p392
aS'wheelchair/image_0003.jpg'
p393
aS'wild_cat/image_0007.jpg'
p394
aS'wild_cat/image_0031.jpg'
p395
aS'wild_cat/image_0015.jpg'
p396
aS'wild_cat/image_0014.jpg'
p397
aS'windsor_chair/image_0055.jpg'
p398
aS'windsor_chair/image_0039.jpg'
p399
aS'windsor_chair/image_0009.jpg'
p400
aS'windsor_chair/image_0054.jpg'
p401
aS'wrench/image_0001.jpg'
p402
aS'wrench/image_0035.jpg'
p403
aS'wrench/image_0037.jpg'
p404
aS'wrench/image_0038.jpg'
p405
aS'yin_yang/image_0032.jpg'
p406
aS'yin_yang/image_0033.jpg'
p407
aS'yin_yang/image_0025.jpg'
p408
aS'yin_yang/image_0004.jpg'
p409
aa(lp410
I0
aI0
aI0
aI0
aI1
aI1
aI1
aI1
aI2
aI2
aI2
aI2
aI3
aI3
aI3
aI3
aI4
aI4
aI4
aI4
aI5
aI5
aI5
aI5
aI6
aI6
aI6
aI6
aI7
aI7
aI7
aI7
aI8
aI8
aI8
aI8
aI9
aI9
aI9
aI9
aI10
aI10
aI10
aI10
aI11
aI11
aI11
aI11
aI12
aI12
aI12
aI12
aI13
aI13
aI13
aI13
aI14
aI14
aI14
aI14
aI15
aI15
aI15
aI15
aI16
aI16
aI16
aI16
aI17
aI17
aI17
aI17
aI18
aI18
aI18
aI18
aI19
aI19
aI19
aI19
aI20
aI20
aI20
aI20
aI21
aI21
aI21
aI21
aI22
aI22
aI22
aI22
aI23
aI23
aI23
aI23
aI24
aI24
aI24
aI24
aI25
aI25
aI25
aI25
aI26
aI26
aI26
aI26
aI27
aI27
aI27
aI27
aI28
aI28
aI28
aI28
aI29
aI29
aI29
aI29
aI30
aI30
aI30
aI30
aI31
aI31
aI31
aI31
aI32
aI32
aI32
aI32
aI33
aI33
aI33
aI33
aI34
aI34
aI34
aI34
aI35
aI35
aI35
aI35
aI36
aI36
aI36
aI36
aI37
aI37
aI37
aI37
aI38
aI38
aI38
aI38
aI39
aI39
aI39
aI39
aI40
aI40
aI40
aI40
aI41
aI41
aI41
aI41
aI42
aI42
aI42
aI42
aI43
aI43
aI43
aI43
aI44
aI44
aI44
aI44
aI45
aI45
aI45
aI45
aI46
aI46
aI46
aI46
aI47
aI47
aI47
aI47
aI48
aI48
aI48
aI48
aI49
aI49
aI49
aI49
aI50
aI50
aI50
aI50
aI51
aI51
aI51
aI51
aI52
aI52
aI52
aI52
aI53
aI53
aI53
aI53
aI54
aI54
aI54
aI54
aI55
aI55
aI55
aI55
aI56
aI56
aI56
aI56
aI57
aI57
aI57
aI57
aI58
aI58
aI58
aI58
aI59
aI59
aI59
aI59
aI60
aI60
aI60
aI60
aI61
aI61
aI61
aI61
aI62
aI62
aI62
aI62
aI63
aI63
aI63
aI63
aI64
aI64
aI64
aI64
aI65
aI65
aI65
aI65
aI66
aI66
aI66
aI66
aI67
aI67
aI67
aI67
aI68
aI68
aI68
aI68
aI69
aI69
aI69
aI69
aI70
aI70
aI70
aI70
aI71
aI71
aI71
aI71
aI72
aI72
aI72
aI72
aI73
aI73
aI73
aI73
aI74
aI74
aI74
aI74
aI75
aI75
aI75
aI75
aI76
aI76
aI76
aI76
aI77
aI77
aI77
aI77
aI78
aI78
aI78
aI78
aI79
aI79
aI79
aI79
aI80
aI80
aI80
aI80
aI81
aI81
aI81
aI81
aI82
aI82
aI82
aI82
aI83
aI83
aI83
aI83
aI84
aI84
aI84
aI84
aI85
aI85
aI85
aI85
aI86
aI86
aI86
aI86
aI87
aI87
aI87
aI87
aI88
aI88
aI88
aI88
aI89
aI89
aI89
aI89
aI90
aI90
aI90
aI90
aI91
aI91
aI91
aI91
aI92
aI92
aI92
aI92
aI93
aI93
aI93
aI93
aI94
aI94
aI94
aI94
aI95
aI95
aI95
aI95
aI96
aI96
aI96
aI96
aI97
aI97
aI97
aI97
aI98
aI98
aI98
aI98
aI99
aI99
aI99
aI99
aI100
aI100
aI100
aI100
aI101
aI101
aI101
aI101
aa(lp411
S'BACKGROUND_Google/image_0292.jpg'
p412
aS'Faces/image_0385.jpg'
p413
aS'Faces_easy/image_0347.jpg'
p414
aS'Leopards/image_0182.jpg'
p415
aS'Motorbikes/image_0631.jpg'
p416
aS'accordion/image_0017.jpg'
p417
aS'airplanes/image_0200.jpg'
p418
aS'anchor/image_0026.jpg'
p419
aS'ant/image_0038.jpg'
p420
aS'barrel/image_0014.jpg'
p421
aS'bass/image_0010.jpg'
p422
aS'beaver/image_0020.jpg'
p423
aS'binocular/image_0016.jpg'
p424
aS'bonsai/image_0035.jpg'
p425
aS'brain/image_0016.jpg'
p426
aS'brontosaurus/image_0029.jpg'
p427
aS'buddha/image_0079.jpg'
p428
aS'butterfly/image_0066.jpg'
p429
aS'camera/image_0017.jpg'
p430
aS'cannon/image_0030.jpg'
p431
aS'car_side/image_0121.jpg'
p432
aS'ceiling_fan/image_0040.jpg'
p433
aS'cellphone/image_0053.jpg'
p434
aS'chair/image_0006.jpg'
p435
aS'chandelier/image_0026.jpg'
p436
aS'cougar_body/image_0047.jpg'
p437
aS'cougar_face/image_0025.jpg'
p438
aS'crab/image_0005.jpg'
p439
aS'crayfish/image_0020.jpg'
p440
aS'crocodile/image_0017.jpg'
p441
aS'crocodile_head/image_0009.jpg'
p442
aS'cup/image_0052.jpg'
p443
aS'dalmatian/image_0019.jpg'
p444
aS'dollar_bill/image_0032.jpg'
p445
aS'dolphin/image_0004.jpg'
p446
aS'dragonfly/image_0014.jpg'
p447
aS'electric_guitar/image_0021.jpg'
p448
aS'elephant/image_0010.jpg'
p449
aS'emu/image_0047.jpg'
p450
aS'euphonium/image_0030.jpg'
p451
aS'ewer/image_0006.jpg'
p452
aS'ferry/image_0008.jpg'
p453
aS'flamingo/image_0055.jpg'
p454
aS'flamingo_head/image_0027.jpg'
p455
aS'garfield/image_0014.jpg'
p456
aS'gerenuk/image_0012.jpg'
p457
aS'gramophone/image_0002.jpg'
p458
aS'grand_piano/image_0073.jpg'
p459
aS'hawksbill/image_0058.jpg'
p460
aS'headphone/image_0022.jpg'
p461
aS'hedgehog/image_0007.jpg'
p462
aS'helicopter/image_0045.jpg'
p463
aS'ibis/image_0038.jpg'
p464
aS'inline_skate/image_0031.jpg'
p465
aS'joshua_tree/image_0005.jpg'
p466
aS'kangaroo/image_0051.jpg'
p467
aS'ketch/image_0092.jpg'
p468
aS'lamp/image_0034.jpg'
p469
aS'laptop/image_0018.jpg'
p470
aS'llama/image_0024.jpg'
p471
aS'lobster/image_0029.jpg'
p472
aS'lotus/image_0021.jpg'
p473
aS'mandolin/image_0010.jpg'
p474
aS'mayfly/image_0029.jpg'
p475
aS'menorah/image_0024.jpg'
p476
aS'metronome/image_0013.jpg'
p477
aS'minaret/image_0067.jpg'
p478
aS'nautilus/image_0011.jpg'
p479
aS'octopus/image_0024.jpg'
p480
aS'okapi/image_0032.jpg'
p481
aS'pagoda/image_0002.jpg'
p482
aS'panda/image_0029.jpg'
p483
aS'pigeon/image_0029.jpg'
p484
aS'pizza/image_0016.jpg'
p485
aS'platypus/image_0005.jpg'
p486
aS'pyramid/image_0049.jpg'
p487
aS'revolver/image_0017.jpg'
p488
aS'rhino/image_0018.jpg'
p489
aS'rooster/image_0024.jpg'
p490
aS'saxophone/image_0035.jpg'
p491
aS'schooner/image_0003.jpg'
p492
aS'scissors/image_0022.jpg'
p493
aS'scorpion/image_0001.jpg'
p494
aS'sea_horse/image_0024.jpg'
p495
aS'snoopy/image_0034.jpg'
p496
aS'soccer_ball/image_0008.jpg'
p497
aS'stapler/image_0045.jpg'
p498
aS'starfish/image_0064.jpg'
p499
aS'stegosaurus/image_0026.jpg'
p500
aS'stop_sign/image_0002.jpg'
p501
aS'strawberry/image_0035.jpg'
p502
aS'sunflower/image_0084.jpg'
p503
aS'tick/image_0025.jpg'
p504
aS'trilobite/image_0008.jpg'
p505
aS'umbrella/image_0074.jpg'
p506
aS'watch/image_0239.jpg'
p507
aS'water_lilly/image_0024.jpg'
p508
aS'wheelchair/image_0052.jpg'
p509
aS'wild_cat/image_0028.jpg'
p510
aS'windsor_chair/image_0025.jpg'
p511
aS'wrench/image_0039.jpg'
p512
aS'yin_yang/image_0029.jpg'
p513
aa(lp514
I0
aI1
aI2
aI3
aI4
aI5
aI6
aI7
aI8
aI9
aI10
aI11
aI12
aI13
aI14
aI15
aI16
aI17
aI18
aI19
aI20
aI21
aI22
aI23
aI24
aI25
aI26
aI27
aI28
aI29
aI30
aI31
aI32
aI33
aI34
aI35
aI36
aI37
aI38
aI39
aI40
aI41
aI42
aI43
aI44
aI45
aI46
aI47
aI48
aI49
aI50
aI51
aI52
aI53
aI54
aI55
aI56
aI57
aI58
aI59
aI60
aI61
aI62
aI63
aI64
aI65
aI66
aI67
aI68
aI69
aI70
aI71
aI72
aI73
aI74
aI75
aI76
aI77
aI78
aI79
aI80
aI81
aI82
aI83
aI84
aI85
aI86
aI87
aI88
aI89
aI90
aI91
aI92
aI93
aI94
aI95
aI96
aI97
aI98
aI99
aI100
aI101
aa.